target datalayout = "e-m:e-p270:32:32-p271:32:32-p272:64:64-i64:64-i128:128-f80:128-n8:16:32:64-S128"
target triple = "x86_64-pc-linux-gnu"

%struct.blake3_hasher = type { [8 x i32], %struct.blake3_chunk_state, i8, [1760 x i8] }
%struct.blake3_chunk_state = type { [8 x i32], i64, [64 x i8], i8, i8, i8 }

; Function Attrs: alwaysinline nounwind uwtable
define internal void @chunk_state_reset(ptr noundef %0, ptr noundef %1, i64 noundef %2) #1 {
  %4 = alloca ptr, align 8
  %5 = alloca ptr, align 8
  %6 = alloca i64, align 8
  store ptr %0, ptr %4, align 8, !tbaa !4
  store ptr %1, ptr %5, align 8, !tbaa !8
  store i64 %2, ptr %6, align 8, !tbaa !19
  %7 = load ptr, ptr %4, align 8, !tbaa !4
  %8 = getelementptr inbounds nuw %struct.blake3_chunk_state, ptr %7, i32 0, i32 0
  %9 = getelementptr inbounds [8 x i32], ptr %8, i64 0, i64 0
  %10 = load ptr, ptr %5, align 8, !tbaa !8
  call void @llvm.memcpy.p0.p0.i64(ptr align 8 %9, ptr align 4 %10, i64 32, i1 false)
  %11 = load i64, ptr %6, align 8, !tbaa !19
  %12 = load ptr, ptr %4, align 8, !tbaa !4
  %13 = getelementptr inbounds nuw %struct.blake3_chunk_state, ptr %12, i32 0, i32 1
  store i64 %11, ptr %13, align 8, !tbaa !24
  %14 = load ptr, ptr %4, align 8, !tbaa !4
  %15 = getelementptr inbounds nuw %struct.blake3_chunk_state, ptr %14, i32 0, i32 4
  store i8 0, ptr %15, align 1, !tbaa !26
  %16 = load ptr, ptr %4, align 8, !tbaa !4
  %17 = getelementptr inbounds nuw %struct.blake3_chunk_state, ptr %16, i32 0, i32 2
  %18 = getelementptr inbounds [64 x i8], ptr %17, i64 0, i64 0
  call void @llvm.memset.p0.i64(ptr align 8 %18, i8 0, i64 64, i1 false)
  %19 = load ptr, ptr %4, align 8, !tbaa !4
  %20 = getelementptr inbounds nuw %struct.blake3_chunk_state, ptr %19, i32 0, i32 3
  store i8 0, ptr %20, align 8, !tbaa !27
  ret void
}

; Function Attrs: nounwind uwtable
define dso_local void @blake3_hasher_reset(ptr noundef %0) #0 {
  %2 = alloca ptr, align 8
  store ptr %0, ptr %2, align 8, !tbaa !4
  %3 = load ptr, ptr %2, align 8, !tbaa !4
  %4 = getelementptr inbounds nuw %struct.blake3_hasher, ptr %3, i32 0, i32 1
  %5 = load ptr, ptr %2, align 8, !tbaa !4
  %6 = getelementptr inbounds nuw %struct.blake3_hasher, ptr %5, i32 0, i32 0
  %7 = getelementptr inbounds [8 x i32], ptr %6, i64 0, i64 0
  call void @chunk_state_reset(ptr noundef %4, ptr noundef %7, i64 noundef 0)
  %8 = load ptr, ptr %2, align 8, !tbaa !4
  %9 = getelementptr inbounds nuw %struct.blake3_hasher, ptr %8, i32 0, i32 2
  store i8 0, ptr %9, align 8, !tbaa !11
  ret void
}