; Function Attrs: mustprogress nofree norecurse nosync nounwind willreturn memory(argmem: readwrite) uwtable
define dso_local void @blake3_hasher_reset(ptr noundef captures(none) %0) local_unnamed_addr #1 {
  %2 = getelementptr inbounds nuw i8, ptr %0, i64 32
  tail call void @llvm.memcpy.p0.p0.i64(ptr noundef nonnull align 8 dereferenceable(32) %2, ptr noundef nonnull align 4 dereferenceable(32) %0, i64 32, i1 false)
  %3 = getelementptr inbounds nuw i8, ptr %0, i64 64
  %4 = getelementptr inbounds nuw i8, ptr %0, i64 144
  store i8 0, ptr %4, align 8, !tbaa !4
  tail call void @llvm.memset.p0.i64(ptr noundef nonnull align 8 dereferenceable(74) %3, i8 0, i64 74, i1 false)
  ret void
}